target datalayout = "e-m:e-p270:32:32-p271:32:32-p272:64:64-i64:64-i128:128-f80:128-n8:16:32:64-S128"
target triple = "x86_64-pc-linux-gnu"

; Function Attrs: alwaysinline nounwind uwtable
define internal void @sbr_hf_apply_noise(ptr noundef %0, ptr noundef %1, ptr noundef %2, i32 noundef %3, float noundef %4, float noundef %5, i32 noundef %6) #4 {
  %8 = alloca ptr, align 8
  %9 = alloca ptr, align 8
  %10 = alloca ptr, align 8
  %11 = alloca i32, align 4
  %12 = alloca float, align 4
  %13 = alloca float, align 4
  %14 = alloca i32, align 4
  %15 = alloca i32, align 4
  %16 = alloca float, align 4
  %17 = alloca float, align 4
  store ptr %0, ptr %8, align 8, !tbaa !21
  store ptr %1, ptr %9, align 8, !tbaa !21
  store ptr %2, ptr %10, align 8, !tbaa !21
  store i32 %3, ptr %11, align 4, !tbaa !23
  store float %4, ptr %12, align 4, !tbaa !25
  store float %5, ptr %13, align 4, !tbaa !25
  store i32 %6, ptr %14, align 4, !tbaa !23
  call void @llvm.lifetime.start.p0(i64 4, ptr %15) #5
  store i32 0, ptr %15, align 4, !tbaa !23
  br label %18

18:                                               ; preds = %101, %7
  %19 = load i32, ptr %15, align 4, !tbaa !23
  %20 = load i32, ptr %14, align 4, !tbaa !23
  %21 = icmp slt i32 %19, %20
  br i1 %21, label %22, label %104

22:                                               ; preds = %18
  call void @llvm.lifetime.start.p0(i64 4, ptr %16) #5
  %23 = load ptr, ptr %8, align 8, !tbaa !21
  %24 = load i32, ptr %15, align 4, !tbaa !23
  %25 = sext i32 %24 to i64
  %26 = getelementptr inbounds [2 x float], ptr %23, i64 %25
  %27 = getelementptr inbounds [2 x float], ptr %26, i64 0, i64 0
  %28 = load float, ptr %27, align 4, !tbaa !25
  store float %28, ptr %16, align 4, !tbaa !25
  call void @llvm.lifetime.start.p0(i64 4, ptr %17) #5
  %29 = load ptr, ptr %8, align 8, !tbaa !21
  %30 = load i32, ptr %15, align 4, !tbaa !23
  %31 = sext i32 %30 to i64
  %32 = getelementptr inbounds [2 x float], ptr %29, i64 %31
  %33 = getelementptr inbounds [2 x float], ptr %32, i64 0, i64 1
  %34 = load float, ptr %33, align 4, !tbaa !25
  store float %34, ptr %17, align 4, !tbaa !25
  %35 = load i32, ptr %11, align 4, !tbaa !23
  %36 = add nsw i32 %35, 1
  %37 = and i32 %36, 511
  store i32 %37, ptr %11, align 4, !tbaa !23
  %38 = load ptr, ptr %9, align 8, !tbaa !21
  %39 = load i32, ptr %15, align 4, !tbaa !23
  %40 = sext i32 %39 to i64
  %41 = getelementptr inbounds float, ptr %38, i64 %40
  %42 = load float, ptr %41, align 4, !tbaa !25
  %43 = fcmp nsz une float %42, 0.000000e+00
  br i1 %43, label %44, label %61

44:                                               ; preds = %22
  %45 = load ptr, ptr %9, align 8, !tbaa !21
  %46 = load i32, ptr %15, align 4, !tbaa !23
  %47 = sext i32 %46 to i64
  %48 = getelementptr inbounds float, ptr %45, i64 %47
  %49 = load float, ptr %48, align 4, !tbaa !25
  %50 = load float, ptr %12, align 4, !tbaa !25
  %51 = load float, ptr %16, align 4, !tbaa !25
  %52 = call nsz float @llvm.fmuladd.f32(float %49, float %50, float %51)
  store float %52, ptr %16, align 4, !tbaa !25
  %53 = load ptr, ptr %9, align 8, !tbaa !21
  %54 = load i32, ptr %15, align 4, !tbaa !23
  %55 = sext i32 %54 to i64
  %56 = getelementptr inbounds float, ptr %53, i64 %55
  %57 = load float, ptr %56, align 4, !tbaa !25
  %58 = load float, ptr %13, align 4, !tbaa !25
  %59 = load float, ptr %17, align 4, !tbaa !25
  %60 = call nsz float @llvm.fmuladd.f32(float %57, float %58, float %59)
  store float %60, ptr %17, align 4, !tbaa !25
  br label %86

61:                                               ; preds = %22
  %62 = load ptr, ptr %10, align 8, !tbaa !21
  %63 = load i32, ptr %15, align 4, !tbaa !23
  %64 = sext i32 %63 to i64
  %65 = getelementptr inbounds float, ptr %62, i64 %64
  %66 = load float, ptr %65, align 4, !tbaa !25
  %67 = load i32, ptr %11, align 4, !tbaa !23
  %68 = sext i32 %67 to i64
  %69 = getelementptr inbounds [0 x [2 x float]], ptr @ff_sbr_noise_table, i64 0, i64 %68
  %70 = getelementptr inbounds [2 x float], ptr %69, i64 0, i64 0
  %71 = load float, ptr %70, align 4, !tbaa !25
  %72 = load float, ptr %16, align 4, !tbaa !25
  %73 = call nsz float @llvm.fmuladd.f32(float %66, float %71, float %72)
  store float %73, ptr %16, align 4, !tbaa !25
  %74 = load ptr, ptr %10, align 8, !tbaa !21
  %75 = load i32, ptr %15, align 4, !tbaa !23
  %76 = sext i32 %75 to i64
  %77 = getelementptr inbounds float, ptr %74, i64 %76
  %78 = load float, ptr %77, align 4, !tbaa !25
  %79 = load i32, ptr %11, align 4, !tbaa !23
  %80 = sext i32 %79 to i64
  %81 = getelementptr inbounds [0 x [2 x float]], ptr @ff_sbr_noise_table, i64 0, i64 %80
  %82 = getelementptr inbounds [2 x float], ptr %81, i64 0, i64 1
  %83 = load float, ptr %82, align 4, !tbaa !25
  %84 = load float, ptr %17, align 4, !tbaa !25
  %85 = call nsz float @llvm.fmuladd.f32(float %78, float %83, float %84)
  store float %85, ptr %17, align 4, !tbaa !25
  br label %86

86:                                               ; preds = %61, %44
  %87 = load float, ptr %16, align 4, !tbaa !25
  %88 = load ptr, ptr %8, align 8, !tbaa !21
  %89 = load i32, ptr %15, align 4, !tbaa !23
  %90 = sext i32 %89 to i64
  %91 = getelementptr inbounds [2 x float], ptr %88, i64 %90
  %92 = getelementptr inbounds [2 x float], ptr %91, i64 0, i64 0
  store float %87, ptr %92, align 4, !tbaa !25
  %93 = load float, ptr %17, align 4, !tbaa !25
  %94 = load ptr, ptr %8, align 8, !tbaa !21
  %95 = load i32, ptr %15, align 4, !tbaa !23
  %96 = sext i32 %95 to i64
  %97 = getelementptr inbounds [2 x float], ptr %94, i64 %96
  %98 = getelementptr inbounds [2 x float], ptr %97, i64 0, i64 1
  store float %93, ptr %98, align 4, !tbaa !25
  %99 = load float, ptr %13, align 4, !tbaa !25
  %100 = fneg nsz float %99
  store float %100, ptr %13, align 4, !tbaa !25
  call void @llvm.lifetime.end.p0(i64 4, ptr %17) #5
  call void @llvm.lifetime.end.p0(i64 4, ptr %16) #5
  br label %101

101:                                              ; preds = %86
  %102 = load i32, ptr %15, align 4, !tbaa !23
  %103 = add nsw i32 %102, 1
  store i32 %103, ptr %15, align 4, !tbaa !23
  br label %18, !llvm.loop !43

104:                                              ; preds = %18
  call void @llvm.lifetime.end.p0(i64 4, ptr %15) #5
  ret void
}

; Function Attrs: nounwind uwtable
define internal void @sbr_hf_apply_noise_2(ptr noundef %0, ptr noundef %1, ptr noundef %2, i32 noundef %3, i32 noundef %4, i32 noundef %5) #1 {
  %7 = alloca ptr, align 8
  %8 = alloca ptr, align 8
  %9 = alloca ptr, align 8
  %10 = alloca i32, align 4
  %11 = alloca i32, align 4
  %12 = alloca i32, align 4
  store ptr %0, ptr %7, align 8, !tbaa !21
  store ptr %1, ptr %8, align 8, !tbaa !21
  store ptr %2, ptr %9, align 8, !tbaa !21
  store i32 %3, ptr %10, align 4, !tbaa !23
  store i32 %4, ptr %11, align 4, !tbaa !23
  store i32 %5, ptr %12, align 4, !tbaa !23
  %13 = load ptr, ptr %7, align 8, !tbaa !21
  %14 = load ptr, ptr %8, align 8, !tbaa !21
  %15 = load ptr, ptr %9, align 8, !tbaa !21
  %16 = load i32, ptr %10, align 4, !tbaa !23
  %17 = load i32, ptr %12, align 4, !tbaa !23
  call void @sbr_hf_apply_noise(ptr noundef %13, ptr noundef %14, ptr noundef %15, i32 noundef %16, float noundef -1.000000e+00, float noundef 0.000000e+00, i32 noundef %17)
  ret void
}